target datalayout = "e-m:e-p270:32:32-p271:32:32-p272:64:64-i64:64-i128:128-f80:128-n8:16:32:64-S128"
target triple = "x86_64-unknown-linux-gnu"

%"struct.rocksdb::DBPropertyInfo" = type { i8, { i64, i64 }, { i64, i64 }, { i64, i64 }, { i64, i64 } }

; Function Attrs: mustprogress uwtable
define noundef zeroext i1 @_ZN7rocksdb13InternalStats24GetIntPropertyOutOfMutexERKNS_14DBPropertyInfoEPNS_7VersionEPm(ptr noundef nonnull align 8 dereferenceable(1944) %this, ptr noundef nonnull align 8 dereferenceable(72) %property_info, ptr noundef %version, ptr noundef %value) #0 align 2 {
entry:
  %this.addr = alloca ptr, align 8
  %property_info.addr = alloca ptr, align 8
  %version.addr = alloca ptr, align 8
  %value.addr = alloca ptr, align 8
  store ptr %this, ptr %this.addr, align 8
  store ptr %property_info, ptr %property_info.addr, align 8
  store ptr %version, ptr %version.addr, align 8
  store ptr %value, ptr %value.addr, align 8
  %this1 = load ptr, ptr %this.addr, align 8
  %0 = load ptr, ptr %property_info.addr, align 8
  %handle_int = getelementptr inbounds %"struct.rocksdb::DBPropertyInfo", ptr %0, i32 0, i32 2
  %1 = load { i64, i64 }, ptr %handle_int, align 8
  %memptr.adj = extractvalue { i64, i64 } %1, 1
  %2 = getelementptr inbounds i8, ptr %this1, i64 %memptr.adj
  %memptr.ptr = extractvalue { i64, i64 } %1, 0
  %3 = and i64 %memptr.ptr, 1
  %memptr.isvirtual = icmp ne i64 %3, 0
  br i1 %memptr.isvirtual, label %memptr.virtual, label %memptr.nonvirtual

memptr.virtual:                                   ; preds = %entry
  %vtable = load ptr, ptr %2, align 8
  %4 = sub i64 %memptr.ptr, 1
  %5 = getelementptr i8, ptr %vtable, i64 %4, !nosanitize !13
  %memptr.virtualfn = load ptr, ptr %5, align 8, !nosanitize !13
  br label %memptr.end

memptr.nonvirtual:                                ; preds = %entry
  %memptr.nonvirtualfn = inttoptr i64 %memptr.ptr to ptr
  br label %memptr.end

memptr.end:                                       ; preds = %memptr.nonvirtual, %memptr.virtual
  %6 = phi ptr [ %memptr.virtualfn, %memptr.virtual ], [ %memptr.nonvirtualfn, %memptr.nonvirtual ]
  %7 = load ptr, ptr %value.addr, align 8
  %8 = load ptr, ptr %version.addr, align 8
  %call = call noundef zeroext i1 %6(ptr noundef nonnull align 8 dereferenceable(1944) %2, ptr noundef %7, ptr noundef null, ptr noundef %8)
  ret i1 %call
}