; Function Attrs: mustprogress uwtable
define noundef zeroext i1 @_ZN7rocksdb13InternalStats24GetIntPropertyOutOfMutexERKNS_14DBPropertyInfoEPNS_7VersionEPm(ptr noundef nonnull align 8 dereferenceable(1944) %this, ptr nocapture noundef nonnull readonly align 8 dereferenceable(72) %property_info, ptr noundef %version, ptr noundef %value) local_unnamed_addr #4 align 2 {
entry:
  %handle_int = getelementptr inbounds i8, ptr %property_info, i64 24
  %.unpack = load i64, ptr %handle_int, align 8
  %.elt1 = getelementptr inbounds i8, ptr %property_info, i64 32
  %.unpack2 = load i64, ptr %.elt1, align 8
  %0 = getelementptr inbounds i8, ptr %this, i64 %.unpack2
  %1 = and i64 %.unpack, 1
  %memptr.isvirtual.not = icmp eq i64 %1, 0
  br i1 %memptr.isvirtual.not, label %memptr.nonvirtual, label %memptr.virtual

memptr.virtual:                                   ; preds = %entry
  %vtable = load ptr, ptr %0, align 8
  %2 = getelementptr i8, ptr %vtable, i64 %.unpack
  %3 = getelementptr i8, ptr %2, i64 -1
  %memptr.virtualfn = load ptr, ptr %3, align 8, !nosanitize !50
  br label %memptr.end

memptr.nonvirtual:                                ; preds = %entry
  %memptr.nonvirtualfn = inttoptr i64 %.unpack to ptr
  br label %memptr.end

memptr.end:                                       ; preds = %memptr.nonvirtual, %memptr.virtual
  %4 = phi ptr [ %memptr.virtualfn, %memptr.virtual ], [ %memptr.nonvirtualfn, %memptr.nonvirtual ]
  %call = tail call noundef zeroext i1 %4(ptr noundef nonnull align 8 dereferenceable(1944) %0, ptr noundef %value, ptr noundef null, ptr noundef %version)
  ret i1 %call
}